; Function Attrs: mustprogress uwtable
define void @_ZN4toku16locktree_manager19locktree_map_removeEPNS_8locktreeE(ptr noundef nonnull align 8 dereferenceable(392) %0, ptr noundef nonnull %1) local_unnamed_addr #0 align 2 {
  %3 = alloca i32, align 4
  %4 = alloca ptr, align 8
  %5 = alloca %struct.DICTIONARY_ID, align 8
  call void @llvm.lifetime.start.p0(i64 4, ptr nonnull %3) #14
  call void @llvm.lifetime.start.p0(i64 8, ptr nonnull %4) #14
  %6 = getelementptr inbounds nuw i8, ptr %0, i64 88
  call void @llvm.lifetime.start.p0(i64 8, ptr nonnull %5) #14
  %7 = tail call i64 @_ZNK4toku8locktree11get_dict_idEv(ptr noundef nonnull align 8 dereferenceable(400) %1)
  store i64 %7, ptr %5, align 8
  %8 = call noundef i32 @_ZNK4toku3omtIPNS_8locktreeES2_Lb0EE9find_zeroI13DICTIONARY_IDTnPFiRKS2_RKT_EXadL_ZNS_16locktree_manager15find_by_dict_idES7_RKS5_EEEEiSA_PS2_Pj(ptr noundef nonnull align 8 dereferenceable(24) %6, ptr noundef nonnull align 8 dereferenceable(8) %5, ptr noundef nonnull %4, ptr noundef nonnull %3)
  call void @llvm.lifetime.end.p0(i64 8, ptr nonnull %5) #14
  %9 = load i32, ptr %3, align 4, !tbaa !14
  %10 = call noundef i32 @_ZN4toku3omtIPNS_8locktreeES2_Lb0EE9delete_atEj(ptr noundef nonnull align 8 dereferenceable(24) %6, i32 noundef %9)
  call void @llvm.lifetime.end.p0(i64 8, ptr nonnull %4) #14
  call void @llvm.lifetime.end.p0(i64 4, ptr nonnull %3) #14
  ret void
}